(dp0
Vengine
p1
S'pdflatex'
p2
sVpackages
p3
c__builtin__
set
p4
((lp5
Vpdflscape
p6
aVinputenc
p7
aVfullpage
p8
aVfloat
p9
aVrotating
p10
aVgraphicx
p11
atp12
Rp13
sVfiles_with_guttermarks
p14
g4
((lp15
V/Users/Fernando/Desktop/ANTONIA/2_Not_collapsed/7C_Alltogether/./Report2.tex
p16
aS'/Users/Fernando/Desktop/ANTONIA/2_Not_collapsed/7C_Alltogether/Report2.Rtex'
p17
aS'Report2.tex'
p18
atp19
Rp20
sVsynctex
p21
I01
s.