(dp0
Vengine
p1
S'pdflatex'
p2
sVpackages
p3
c__builtin__
set
p4
((lp5
Vgraphicx
p6
aVupquote
p7
aVinputenc
p8
aValltt
p9
aVframed
p10
atp11
Rp12
sVfiles_with_guttermarks
p13
g4
((lp14
V/Users/Fernando/Desktop/ANTONIA/2_Not_collapsed/7C_Alltogether/./Report.Rtex.tex
p15
aS'Report.Rtex.txt'
p16
aV/Users/Fernando/Desktop/ANTONIA/2_Not_collapsed/7C_Alltogether/./Report.Rtex.txt
p17
atp18
Rp19
sVsynctex
p20
I01
s.