(dp0
Vengine
p1
S'pdflatex'
p2
sVpackages
p3
c__builtin__
set
p4
((lp5
Vupquote
p6
aValltt
p7
aVframed
p8
atp9
Rp10
sVfiles_with_guttermarks
p11
g4
((lp12
S'try.Rtex.txt'
p13
atp14
Rp15
sVsynctex
p16
I01
s.